target datalayout = "e-m:e-p270:32:32-p271:32:32-p272:64:64-i64:64-i128:128-f80:128-n8:16:32:64-S128"
target triple = "x86_64-pc-linux-gnu"

%struct.GetByteContext = type { ptr, ptr, ptr }
%struct.AVBPrint = type { ptr, i32, i32, i32, [1 x i8], [1000 x i8] }

@.str.4 = private unnamed_addr constant [6 x i8] c"%s%3i\00", align 1
@.str.7 = private unnamed_addr constant [1 x i8] zeroinitializer, align 1
@.str.8 = private unnamed_addr constant [3 x i8] c", \00", align 1
@.str.9 = private unnamed_addr constant [2 x i8] c"\0A\00", align 1

; Function Attrs: alwaysinline nounwind uwtable
define internal i32 @bytestream_get_byte(ptr noundef %0) #2 {
  %2 = alloca ptr, align 8
  store ptr %0, ptr %2, align 8, !tbaa !34
  %3 = load ptr, ptr %2, align 8, !tbaa !34
  %4 = load ptr, ptr %3, align 8, !tbaa !20
  %5 = getelementptr inbounds i8, ptr %4, i64 1
  store ptr %5, ptr %3, align 8, !tbaa !20
  %6 = load ptr, ptr %2, align 8, !tbaa !34
  %7 = load ptr, ptr %6, align 8, !tbaa !20
  %8 = getelementptr inbounds i8, ptr %7, i64 -1
  %9 = getelementptr inbounds i8, ptr %8, i64 0
  %10 = load i8, ptr %9, align 1, !tbaa !19
  %11 = zext i8 %10 to i32
  ret i32 %11
}

; Function Attrs: inlinehint nounwind uwtable
define internal i32 @av_bprint_is_complete(ptr noundef %0) #6 {
  %2 = alloca ptr, align 8
  store ptr %0, ptr %2, align 8, !tbaa !25
  %3 = load ptr, ptr %2, align 8, !tbaa !25
  %4 = getelementptr inbounds nuw %struct.AVBPrint, ptr %3, i32 0, i32 1
  %5 = load i32, ptr %4, align 8, !tbaa !38
  %6 = load ptr, ptr %2, align 8, !tbaa !25
  %7 = getelementptr inbounds nuw %struct.AVBPrint, ptr %6, i32 0, i32 2
  %8 = load i32, ptr %7, align 4, !tbaa !40
  %9 = icmp ult i32 %5, %8
  %10 = zext i1 %9 to i32
  ret i32 %10
}

; Function Attrs: alwaysinline nounwind uwtable
define internal i32 @bytestream2_get_byteu(ptr noundef %0) #2 {
  %2 = alloca ptr, align 8
  store ptr %0, ptr %2, align 8, !tbaa !12
  %3 = load ptr, ptr %2, align 8, !tbaa !12
  %4 = getelementptr inbounds nuw %struct.GetByteContext, ptr %3, i32 0, i32 0
  %5 = call i32 @bytestream_get_byte(ptr noundef %4)
  ret i32 %5
}

; Function Attrs: nounwind uwtable
define internal i32 @bprint_to_avdict(ptr noundef %0, ptr noundef %1, ptr noundef %2) #0 {
  %4 = alloca i32, align 4
  %5 = alloca ptr, align 8
  %6 = alloca ptr, align 8
  %7 = alloca ptr, align 8
  %8 = alloca ptr, align 8
  %9 = alloca i32, align 4
  %10 = alloca i32, align 4
  store ptr %0, ptr %5, align 8, !tbaa !25
  store ptr %1, ptr %6, align 8, !tbaa !20
  store ptr %2, ptr %7, align 8, !tbaa !21
  call void @llvm.lifetime.start.p0(i64 8, ptr %8) #8
  call void @llvm.lifetime.start.p0(i64 4, ptr %9) #8
  %11 = load ptr, ptr %5, align 8, !tbaa !25
  %12 = call i32 @av_bprint_is_complete(ptr noundef %11)
  %13 = icmp ne i32 %12, 0
  br i1 %13, label %17, label %14

14:                                               ; preds = %3
  %15 = load ptr, ptr %5, align 8, !tbaa !25
  %16 = call i32 @av_bprint_finalize(ptr noundef %15, ptr noundef null)
  store i32 -12, ptr %4, align 4
  store i32 1, ptr %10, align 4
  br label %28

17:                                               ; preds = %3
  %18 = load ptr, ptr %5, align 8, !tbaa !25
  %19 = call i32 @av_bprint_finalize(ptr noundef %18, ptr noundef %8)
  store i32 %19, ptr %9, align 4, !tbaa !4
  %20 = icmp slt i32 %19, 0
  br i1 %20, label %21, label %23

21:                                               ; preds = %17
  %22 = load i32, ptr %9, align 4, !tbaa !4
  store i32 %22, ptr %4, align 4
  store i32 1, ptr %10, align 4
  br label %28

23:                                               ; preds = %17
  %24 = load ptr, ptr %7, align 8, !tbaa !21
  %25 = load ptr, ptr %6, align 8, !tbaa !20
  %26 = load ptr, ptr %8, align 8, !tbaa !20
  %27 = call i32 @av_dict_set(ptr noundef %24, ptr noundef %25, ptr noundef %26, i32 noundef 8)
  store i32 %27, ptr %4, align 4
  store i32 1, ptr %10, align 4
  br label %28

28:                                               ; preds = %23, %21, %14
  call void @llvm.lifetime.end.p0(i64 4, ptr %9) #8
  call void @llvm.lifetime.end.p0(i64 8, ptr %8) #8
  %29 = load i32, ptr %4, align 4
  ret i32 %29
}

; Function Attrs: nounwind uwtable
define internal ptr @auto_sep(i32 noundef %0, ptr noundef %1, i32 noundef %2, i32 noundef %3) #0 {
  %5 = alloca ptr, align 8
  %6 = alloca i32, align 4
  %7 = alloca ptr, align 8
  %8 = alloca i32, align 4
  %9 = alloca i32, align 4
  store i32 %0, ptr %6, align 4, !tbaa !4
  store ptr %1, ptr %7, align 8, !tbaa !20
  store i32 %2, ptr %8, align 4, !tbaa !4
  store i32 %3, ptr %9, align 4, !tbaa !4
  %10 = load ptr, ptr %7, align 8, !tbaa !20
  %11 = icmp ne ptr %10, null
  br i1 %11, label %12, label %20

12:                                               ; preds = %4
  %13 = load i32, ptr %8, align 4, !tbaa !4
  %14 = icmp ne i32 %13, 0
  br i1 %14, label %15, label %17

15:                                               ; preds = %12
  %16 = load ptr, ptr %7, align 8, !tbaa !20
  br label %18

17:                                               ; preds = %12
  br label %18

18:                                               ; preds = %17, %15
  %19 = phi ptr [ %16, %15 ], [ @.str.7, %17 ]
  store ptr %19, ptr %5, align 8
  br label %34

20:                                               ; preds = %4
  %21 = load i32, ptr %8, align 4, !tbaa !4
  %22 = icmp ne i32 %21, 0
  br i1 %22, label %23, label %29

23:                                               ; preds = %20
  %24 = load i32, ptr %8, align 4, !tbaa !4
  %25 = load i32, ptr %9, align 4, !tbaa !4
  %26 = srem i32 %24, %25
  %27 = icmp ne i32 %26, 0
  br i1 %27, label %28, label %29

28:                                               ; preds = %23
  store ptr @.str.8, ptr %5, align 8
  br label %34

29:                                               ; preds = %23, %20
  %30 = load i32, ptr %9, align 4, !tbaa !4
  %31 = load i32, ptr %6, align 4, !tbaa !4
  %32 = icmp slt i32 %30, %31
  %33 = select i1 %32, ptr @.str.9, ptr @.str.7
  store ptr %33, ptr %5, align 8
  br label %34

34:                                               ; preds = %29, %28, %18
  %35 = load ptr, ptr %5, align 8
  ret ptr %35
}

; Function Attrs: alwaysinline nounwind uwtable
define internal i32 @bytestream2_get_byte(ptr noundef %0) #2 {
  %2 = alloca i32, align 4
  %3 = alloca ptr, align 8
  store ptr %0, ptr %3, align 8, !tbaa !12
  %4 = load ptr, ptr %3, align 8, !tbaa !12
  %5 = getelementptr inbounds nuw %struct.GetByteContext, ptr %4, i32 0, i32 1
  %6 = load ptr, ptr %5, align 8, !tbaa !15
  %7 = load ptr, ptr %3, align 8, !tbaa !12
  %8 = getelementptr inbounds nuw %struct.GetByteContext, ptr %7, i32 0, i32 0
  %9 = load ptr, ptr %8, align 8, !tbaa !18
  %10 = ptrtoint ptr %6 to i64
  %11 = ptrtoint ptr %9 to i64
  %12 = sub i64 %10, %11
  %13 = icmp slt i64 %12, 1
  br i1 %13, label %14, label %20

14:                                               ; preds = %1
  %15 = load ptr, ptr %3, align 8, !tbaa !12
  %16 = getelementptr inbounds nuw %struct.GetByteContext, ptr %15, i32 0, i32 1
  %17 = load ptr, ptr %16, align 8, !tbaa !15
  %18 = load ptr, ptr %3, align 8, !tbaa !12
  %19 = getelementptr inbounds nuw %struct.GetByteContext, ptr %18, i32 0, i32 0
  store ptr %17, ptr %19, align 8, !tbaa !18
  store i32 0, ptr %2, align 4
  br label %23

20:                                               ; preds = %1
  %21 = load ptr, ptr %3, align 8, !tbaa !12
  %22 = call i32 @bytestream2_get_byteu(ptr noundef %21)
  store i32 %22, ptr %2, align 4
  br label %23

23:                                               ; preds = %20, %14
  %24 = load i32, ptr %2, align 4
  ret i32 %24
}

; Function Attrs: alwaysinline nounwind uwtable
define internal i32 @bytestream2_get_bytes_left(ptr noundef %0) #2 {
  %2 = alloca ptr, align 8
  store ptr %0, ptr %2, align 8, !tbaa !12
  %3 = load ptr, ptr %2, align 8, !tbaa !12
  %4 = getelementptr inbounds nuw %struct.GetByteContext, ptr %3, i32 0, i32 1
  %5 = load ptr, ptr %4, align 8, !tbaa !15
  %6 = load ptr, ptr %2, align 8, !tbaa !12
  %7 = getelementptr inbounds nuw %struct.GetByteContext, ptr %6, i32 0, i32 0
  %8 = load ptr, ptr %7, align 8, !tbaa !18
  %9 = ptrtoint ptr %5 to i64
  %10 = ptrtoint ptr %8 to i64
  %11 = sub i64 %9, %10
  %12 = trunc i64 %11 to i32
  ret i32 %12
}

; Function Attrs: nounwind uwtable
define i32 @ff_tadd_bytes_metadata(i32 noundef %0, ptr noundef %1, ptr noundef %2, ptr noundef %3, i32 noundef %4, i32 noundef %5, ptr noundef %6) #0 {
  %8 = alloca i32, align 4
  %9 = alloca i32, align 4
  %10 = alloca ptr, align 8
  %11 = alloca ptr, align 8
  %12 = alloca ptr, align 8
  %13 = alloca i32, align 4
  %14 = alloca i32, align 4
  %15 = alloca ptr, align 8
  %16 = alloca %struct.AVBPrint, align 8
  %17 = alloca i32, align 4
  %18 = alloca i32, align 4
  %19 = alloca i32, align 4
  store i32 %0, ptr %9, align 4, !tbaa !4
  store ptr %1, ptr %10, align 8, !tbaa !20
  store ptr %2, ptr %11, align 8, !tbaa !20
  store ptr %3, ptr %12, align 8, !tbaa !12
  store i32 %4, ptr %13, align 4, !tbaa !4
  store i32 %5, ptr %14, align 4, !tbaa !4
  store ptr %6, ptr %15, align 8, !tbaa !21
  call void @llvm.lifetime.start.p0(i64 1024, ptr %16) #8
  call void @llvm.lifetime.start.p0(i64 4, ptr %17) #8
  %20 = load i32, ptr %9, align 4, !tbaa !4
  %21 = sext i32 %20 to i64
  %22 = icmp uge i64 %21, 2147483647
  br i1 %22, label %26, label %23

23:                                               ; preds = %7
  %24 = load i32, ptr %9, align 4, !tbaa !4
  %25 = icmp slt i32 %24, 0
  br i1 %25, label %26, label %27

26:                                               ; preds = %23, %7
  store i32 -1094995529, ptr %8, align 4
  store i32 1, ptr %18, align 4
  br label %68

27:                                               ; preds = %23
  %28 = load ptr, ptr %12, align 8, !tbaa !12
  %29 = call i32 @bytestream2_get_bytes_left(ptr noundef %28)
  %30 = sext i32 %29 to i64
  %31 = load i32, ptr %9, align 4, !tbaa !4
  %32 = sext i32 %31 to i64
  %33 = mul i64 %32, 1
  %34 = icmp ult i64 %30, %33
  br i1 %34, label %35, label %36

35:                                               ; preds = %27
  store i32 -1094995529, ptr %8, align 4
  store i32 1, ptr %18, align 4
  br label %68

36:                                               ; preds = %27
  %37 = load i32, ptr %9, align 4, !tbaa !4
  %38 = mul nsw i32 10, %37
  call void @av_bprint_init(ptr noundef %16, i32 noundef %38, i32 noundef -1)
  store i32 0, ptr %17, align 4, !tbaa !4
  br label %39

39:                                               ; preds = %61, %36
  %40 = load i32, ptr %17, align 4, !tbaa !4
  %41 = load i32, ptr %9, align 4, !tbaa !4
  %42 = icmp slt i32 %40, %41
  br i1 %42, label %43, label %64

43:                                               ; preds = %39
  call void @llvm.lifetime.start.p0(i64 4, ptr %19) #8
  %44 = load i32, ptr %14, align 4, !tbaa !4
  %45 = icmp ne i32 %44, 0
  br i1 %45, label %46, label %51

46:                                               ; preds = %43
  %47 = load ptr, ptr %12, align 8, !tbaa !12
  %48 = call i32 @bytestream2_get_byte(ptr noundef %47)
  %49 = trunc i32 %48 to i8
  %50 = sext i8 %49 to i32
  br label %54

51:                                               ; preds = %43
  %52 = load ptr, ptr %12, align 8, !tbaa !12
  %53 = call i32 @bytestream2_get_byte(ptr noundef %52)
  br label %54

54:                                               ; preds = %51, %46
  %55 = phi i32 [ %50, %46 ], [ %53, %51 ]
  store i32 %55, ptr %19, align 4, !tbaa !4
  %56 = load i32, ptr %9, align 4, !tbaa !4
  %57 = load ptr, ptr %11, align 8, !tbaa !20
  %58 = load i32, ptr %17, align 4, !tbaa !4
  %59 = call ptr @auto_sep(i32 noundef %56, ptr noundef %57, i32 noundef %58, i32 noundef 16)
  %60 = load i32, ptr %19, align 4, !tbaa !4
  call void (ptr, ptr, ...) @av_bprintf(ptr noundef %16, ptr noundef @.str.4, ptr noundef %59, i32 noundef %60)
  call void @llvm.lifetime.end.p0(i64 4, ptr %19) #8
  br label %61

61:                                               ; preds = %54
  %62 = load i32, ptr %17, align 4, !tbaa !4
  %63 = add nsw i32 %62, 1
  store i32 %63, ptr %17, align 4, !tbaa !4
  br label %39, !llvm.loop !30

64:                                               ; preds = %39
  %65 = load ptr, ptr %10, align 8, !tbaa !20
  %66 = load ptr, ptr %15, align 8, !tbaa !21
  %67 = call i32 @bprint_to_avdict(ptr noundef %16, ptr noundef %65, ptr noundef %66)
  store i32 %67, ptr %8, align 4
  store i32 1, ptr %18, align 4
  br label %68

68:                                               ; preds = %64, %35, %26
  call void @llvm.lifetime.end.p0(i64 4, ptr %17) #8
  call void @llvm.lifetime.end.p0(i64 1024, ptr %16) #8
  %69 = load i32, ptr %8, align 4
  ret i32 %69
}