; Function Attrs: nounwind uwtable
define i32 @ff_tadd_bytes_metadata(i32 noundef %0, ptr noundef %1, ptr noundef %2, ptr noundef captures(none) %3, i32 noundef %4, i32 noundef %5, ptr noundef %6) local_unnamed_addr #3 {
  %8 = alloca ptr, align 8
  %9 = alloca %struct.AVBPrint, align 8
  call void @llvm.lifetime.start.p0(i64 1024, ptr nonnull %9) #8
  %10 = icmp ugt i32 %0, 2147483646
  br i1 %10, label %90, label %11

11:                                               ; preds = %7
  %12 = getelementptr inbounds nuw i8, ptr %3, i64 8
  %13 = load ptr, ptr %12, align 8, !tbaa !10
  %14 = load ptr, ptr %3, align 8, !tbaa !14
  %15 = ptrtoint ptr %13 to i64
  %16 = ptrtoint ptr %14 to i64
  %17 = sub i64 %15, %16
  %18 = trunc i64 %17 to i32
  %19 = icmp ugt i32 %0, %18
  br i1 %19, label %90, label %20

20:                                               ; preds = %11
  %21 = mul nuw nsw i32 %0, 10
  call void @av_bprint_init(ptr noundef nonnull %9, i32 noundef %21, i32 noundef -1) #8
  %.not33 = icmp eq i32 %0, 0
  br i1 %.not33, label %._crit_edge, label %.lr.ph

.lr.ph:                                           ; preds = %20
  %.not = icmp eq i32 %5, 0
  %.not.i = icmp eq ptr %2, null
  %22 = icmp samesign ugt i32 %0, 16
  %23 = select i1 %22, ptr @.str.9, ptr @.str.7
  br i1 %.not, label %.lr.ph.split.us, label %.lr.ph.split

.lr.ph.split.us:                                  ; preds = %.lr.ph
  br i1 %.not.i, label %.lr.ph.split.us.split.us, label %.lr.ph.split.us.split

.lr.ph.split.us.split.us:                         ; preds = %.lr.ph.split.us, %bytestream2_get_byte.exit.us.us
  %.01826.us.us = phi i32 [ %37, %bytestream2_get_byte.exit.us.us ], [ 0, %.lr.ph.split.us ]
  %24 = load ptr, ptr %12, align 8, !tbaa !10
  %25 = load ptr, ptr %3, align 8, !tbaa !14
  %26 = ptrtoint ptr %24 to i64
  %27 = ptrtoint ptr %25 to i64
  %28 = sub i64 %26, %27
  %29 = icmp slt i64 %28, 1
  br i1 %29, label %34, label %30

30:                                               ; preds = %.lr.ph.split.us.split.us
  %31 = getelementptr inbounds nuw i8, ptr %25, i64 1
  store ptr %31, ptr %3, align 8, !tbaa !15
  %32 = load i8, ptr %25, align 1, !tbaa !16
  %33 = zext i8 %32 to i32
  br label %bytestream2_get_byte.exit.us.us

34:                                               ; preds = %.lr.ph.split.us.split.us
  store ptr %24, ptr %3, align 8, !tbaa !14
  br label %bytestream2_get_byte.exit.us.us

bytestream2_get_byte.exit.us.us:                  ; preds = %34, %30
  %35 = phi i32 [ 0, %34 ], [ %33, %30 ]
  %36 = and i32 %.01826.us.us, 15
  %.not11.i.us.us = icmp eq i32 %36, 0
  %spec.select = select i1 %.not11.i.us.us, ptr %23, ptr @.str.8
  call void (ptr, ptr, ...) @av_bprintf(ptr noundef nonnull %9, ptr noundef nonnull @.str.4, ptr noundef nonnull %spec.select, i32 noundef %35) #8
  %37 = add nuw nsw i32 %.01826.us.us, 1
  %exitcond39.not = icmp eq i32 %37, %0
  br i1 %exitcond39.not, label %._crit_edge, label %.lr.ph.split.us.split.us, !llvm.loop !25

.lr.ph.split.us.split:                            ; preds = %.lr.ph.split.us, %bytestream2_get_byte.exit.us
  %.01826.us = phi i32 [ %51, %bytestream2_get_byte.exit.us ], [ 0, %.lr.ph.split.us ]
  %38 = load ptr, ptr %12, align 8, !tbaa !10
  %39 = load ptr, ptr %3, align 8, !tbaa !14
  %40 = ptrtoint ptr %38 to i64
  %41 = ptrtoint ptr %39 to i64
  %42 = sub i64 %40, %41
  %43 = icmp slt i64 %42, 1
  br i1 %43, label %48, label %44

44:                                               ; preds = %.lr.ph.split.us.split
  %45 = getelementptr inbounds nuw i8, ptr %39, i64 1
  store ptr %45, ptr %3, align 8, !tbaa !15
  %46 = load i8, ptr %39, align 1, !tbaa !16
  %47 = zext i8 %46 to i32
  br label %bytestream2_get_byte.exit.us

48:                                               ; preds = %.lr.ph.split.us.split
  store ptr %38, ptr %3, align 8, !tbaa !14
  br label %bytestream2_get_byte.exit.us

bytestream2_get_byte.exit.us:                     ; preds = %48, %44
  %49 = phi i32 [ 0, %48 ], [ %47, %44 ]
  %.not10.i.us = icmp eq i32 %.01826.us, 0
  %50 = select i1 %.not10.i.us, ptr @.str.7, ptr %2
  call void (ptr, ptr, ...) @av_bprintf(ptr noundef nonnull %9, ptr noundef nonnull @.str.4, ptr noundef nonnull %50, i32 noundef %49) #8
  %51 = add nuw nsw i32 %.01826.us, 1
  %exitcond38.not = icmp eq i32 %51, %0
  br i1 %exitcond38.not, label %._crit_edge, label %.lr.ph.split.us.split, !llvm.loop !25

.lr.ph.split:                                     ; preds = %.lr.ph
  br i1 %.not.i, label %.lr.ph.split.split.us, label %.lr.ph.split.split

.lr.ph.split.split.us:                            ; preds = %.lr.ph.split, %bytestream2_get_byte.exit.us28
  %.01826.us27 = phi i32 [ %65, %bytestream2_get_byte.exit.us28 ], [ 0, %.lr.ph.split ]
  %52 = load ptr, ptr %12, align 8, !tbaa !10
  %53 = load ptr, ptr %3, align 8, !tbaa !14
  %54 = ptrtoint ptr %52 to i64
  %55 = ptrtoint ptr %53 to i64
  %56 = sub i64 %54, %55
  %57 = icmp slt i64 %56, 1
  br i1 %57, label %62, label %58

58:                                               ; preds = %.lr.ph.split.split.us
  %59 = getelementptr inbounds nuw i8, ptr %53, i64 1
  store ptr %59, ptr %3, align 8, !tbaa !15
  %60 = load i8, ptr %53, align 1, !tbaa !16
  %61 = sext i8 %60 to i32
  br label %bytestream2_get_byte.exit.us28

62:                                               ; preds = %.lr.ph.split.split.us
  store ptr %52, ptr %3, align 8, !tbaa !14
  br label %bytestream2_get_byte.exit.us28

bytestream2_get_byte.exit.us28:                   ; preds = %62, %58
  %63 = phi i32 [ 0, %62 ], [ %61, %58 ]
  %64 = and i32 %.01826.us27, 15
  %.not11.i.us29 = icmp eq i32 %64, 0
  %spec.select32 = select i1 %.not11.i.us29, ptr %23, ptr @.str.8
  call void (ptr, ptr, ...) @av_bprintf(ptr noundef nonnull %9, ptr noundef nonnull @.str.4, ptr noundef nonnull %spec.select32, i32 noundef %63) #8
  %65 = add nuw nsw i32 %.01826.us27, 1
  %exitcond37.not = icmp eq i32 %65, %0
  br i1 %exitcond37.not, label %._crit_edge, label %.lr.ph.split.split.us, !llvm.loop !25

.lr.ph.split.split:                               ; preds = %.lr.ph.split, %bytestream2_get_byte.exit
  %.01826 = phi i32 [ %79, %bytestream2_get_byte.exit ], [ 0, %.lr.ph.split ]
  %66 = load ptr, ptr %12, align 8, !tbaa !10
  %67 = load ptr, ptr %3, align 8, !tbaa !14
  %68 = ptrtoint ptr %66 to i64
  %69 = ptrtoint ptr %67 to i64
  %70 = sub i64 %68, %69
  %71 = icmp slt i64 %70, 1
  br i1 %71, label %72, label %73

72:                                               ; preds = %.lr.ph.split.split
  store ptr %66, ptr %3, align 8, !tbaa !14
  br label %bytestream2_get_byte.exit

73:                                               ; preds = %.lr.ph.split.split
  %74 = getelementptr inbounds nuw i8, ptr %67, i64 1
  store ptr %74, ptr %3, align 8, !tbaa !15
  %75 = load i8, ptr %67, align 1, !tbaa !16
  %76 = sext i8 %75 to i32
  br label %bytestream2_get_byte.exit

bytestream2_get_byte.exit:                        ; preds = %73, %72
  %77 = phi i32 [ 0, %72 ], [ %76, %73 ]
  %.not10.i = icmp eq i32 %.01826, 0
  %78 = select i1 %.not10.i, ptr @.str.7, ptr %2
  call void (ptr, ptr, ...) @av_bprintf(ptr noundef nonnull %9, ptr noundef nonnull @.str.4, ptr noundef nonnull %78, i32 noundef %77) #8
  %79 = add nuw nsw i32 %.01826, 1
  %exitcond.not = icmp eq i32 %79, %0
  br i1 %exitcond.not, label %._crit_edge, label %.lr.ph.split.split, !llvm.loop !25

._crit_edge:                                      ; preds = %bytestream2_get_byte.exit, %bytestream2_get_byte.exit.us28, %bytestream2_get_byte.exit.us, %bytestream2_get_byte.exit.us.us, %20
  call void @llvm.lifetime.start.p0(i64 8, ptr nonnull %8) #8
  %80 = getelementptr inbounds nuw i8, ptr %9, i64 8
  %.val.i = load i32, ptr %80, align 8, !tbaa !18
  %81 = getelementptr inbounds nuw i8, ptr %9, i64 12
  %.val7.i = load i32, ptr %81, align 4, !tbaa !21
  %.not.i24 = icmp ult i32 %.val.i, %.val7.i
  br i1 %.not.i24, label %84, label %82

82:                                               ; preds = %._crit_edge
  %83 = call i32 @av_bprint_finalize(ptr noundef nonnull %9, ptr noundef null) #8
  br label %bprint_to_avdict.exit

84:                                               ; preds = %._crit_edge
  %85 = call i32 @av_bprint_finalize(ptr noundef nonnull %9, ptr noundef nonnull %8) #8
  %86 = icmp slt i32 %85, 0
  br i1 %86, label %bprint_to_avdict.exit, label %87

87:                                               ; preds = %84
  %88 = load ptr, ptr %8, align 8, !tbaa !15
  %89 = call i32 @av_dict_set(ptr noundef %6, ptr noundef %1, ptr noundef %88, i32 noundef 8) #8
  br label %bprint_to_avdict.exit

bprint_to_avdict.exit:                            ; preds = %82, %84, %87
  %.0.i25 = phi i32 [ %89, %87 ], [ -12, %82 ], [ %85, %84 ]
  call void @llvm.lifetime.end.p0(i64 8, ptr nonnull %8) #8
  br label %90

90:                                               ; preds = %11, %7, %bprint_to_avdict.exit
  %.0 = phi i32 [ %.0.i25, %bprint_to_avdict.exit ], [ -1094995529, %7 ], [ -1094995529, %11 ]
  call void @llvm.lifetime.end.p0(i64 1024, ptr nonnull %9) #8
  ret i32 %.0
}